; Function Attrs: null_pointer_is_valid sspstrong uwtable
define internal void @dissect_pfcp_average_packet_delay(ptr noundef %0, ptr noundef %1, ptr noundef %2, ptr readnone captures(none) %3, i16 noundef zeroext %4, i8 zeroext %5, ptr readnone captures(none) %6) #0 {
  %8 = load i32, ptr @hf_pfcp_packet_delay_milliseconds, align 4
  %9 = tail call ptr @proto_tree_add_item(ptr noundef %2, i32 noundef %8, ptr noundef %0, i32 noundef 0, i32 noundef 4, i32 noundef 0)
  %10 = icmp ugt i16 %4, 4
  br i1 %10, label %11, label %14

11:                                               ; preds = %7
  %12 = zext i16 %4 to i32
  %13 = tail call ptr @proto_tree_add_expert(ptr noundef %2, ptr noundef %1, ptr noundef nonnull @ei_pfcp_ie_data_not_decoded, ptr noundef %0, i32 noundef 4, i32 noundef %12)
  br label %14

14:                                               ; preds = %11, %7
  ret void
}